; Function Attrs: nounwind sspstrong uwtable
define dso_local void @job_early_fail(ptr noundef %0) local_unnamed_addr #0 {
  %2 = load atomic i64, ptr @qemu_mutex_lock_func monotonic, align 8
  %3 = inttoptr i64 %2 to ptr
  tail call void %3(ptr noundef nonnull @job_mutex, ptr noundef nonnull @.str.29, i32 noundef 56) #15
  %4 = getelementptr inbounds nuw i8, ptr %0, i64 124
  %5 = load i32, ptr %4, align 4
  %6 = icmp eq i32 %5, 1
  br i1 %6, label %glib_autoptr_cleanup_QemuLockable.exit, label %7

7:                                                ; preds = %1
  tail call void @__assert_fail(ptr noundef nonnull @.str.22, ptr noundef nonnull @.str, i32 noundef 784, ptr noundef nonnull @__PRETTY_FUNCTION__.job_early_fail) #17
  unreachable

glib_autoptr_cleanup_QemuLockable.exit:           ; preds = %1
  %8 = getelementptr inbounds nuw i8, ptr %0, i64 180
  store i8 0, ptr %8, align 4
  %9 = getelementptr inbounds nuw i8, ptr %0, i64 181
  store i8 0, ptr %9, align 1
  %10 = getelementptr inbounds nuw i8, ptr %0, i64 185
  store i8 1, ptr %10, align 1
  %11 = getelementptr inbounds nuw i8, ptr %0, i64 256
  %12 = load ptr, ptr %11, align 8
  %.not.i.i = icmp eq ptr %12, null
  br i1 %.not.i.i, label %job_do_dismiss_locked.exit, label %13

13:                                               ; preds = %glib_autoptr_cleanup_QemuLockable.exit
  %14 = getelementptr inbounds nuw i8, ptr %0, i64 264
  %15 = load ptr, ptr %14, align 8
  %.not10.i.i = icmp eq ptr %15, null
  %.phi.trans.insert.i.i = getelementptr inbounds nuw i8, ptr %0, i64 272
  %.pre11.i.i = load ptr, ptr %.phi.trans.insert.i.i, align 8
  br i1 %.not10.i.i, label %._crit_edge.i.i, label %16

16:                                               ; preds = %13
  %17 = getelementptr inbounds nuw i8, ptr %15, i64 272
  store ptr %.pre11.i.i, ptr %17, align 8
  %.pre.i.i = load ptr, ptr %14, align 8
  br label %._crit_edge.i.i

._crit_edge.i.i:                                  ; preds = %16, %13
  %18 = phi ptr [ %.pre.i.i, %16 ], [ null, %13 ]
  store ptr %18, ptr %.pre11.i.i, align 8
  tail call void @llvm.memset.p0.i64(ptr noundef nonnull align 8 dereferenceable(16) %14, i8 0, i64 16, i1 false)
  %19 = load ptr, ptr %11, align 8
  %.not.i.i.i = icmp eq ptr %19, null
  br i1 %.not.i.i.i, label %job_txn_unref_locked.exit.i.i, label %20

20:                                               ; preds = %._crit_edge.i.i
  %21 = getelementptr inbounds nuw i8, ptr %19, i64 16
  %22 = load i32, ptr %21, align 8
  %23 = add i32 %22, -1
  store i32 %23, ptr %21, align 8
  %24 = icmp eq i32 %23, 0
  br i1 %24, label %25, label %job_txn_unref_locked.exit.i.i

25:                                               ; preds = %20
  tail call void @g_free(ptr noundef nonnull %19) #15
  br label %job_txn_unref_locked.exit.i.i

job_txn_unref_locked.exit.i.i:                    ; preds = %25, %20, %._crit_edge.i.i
  store ptr null, ptr %11, align 8
  br label %job_do_dismiss_locked.exit

job_do_dismiss_locked.exit:                       ; preds = %glib_autoptr_cleanup_QemuLockable.exit, %job_txn_unref_locked.exit.i.i
  tail call fastcc void @job_state_transition_locked(ptr noundef nonnull %0, i32 noundef 10)
  tail call void @job_unref_locked(ptr noundef nonnull %0)
  tail call void @qemu_mutex_unlock_impl(ptr noundef nonnull @job_mutex, ptr noundef nonnull @.str.29, i32 noundef 56) #15
  ret void
}